; Function Attrs: mustprogress uwtable
define hidden noundef ptr @_ZN9format_ns5fsortER11ast_manager(ptr noundef nonnull align 8 dereferenceable(976) %0) local_unnamed_addr #3 {
  %2 = getelementptr inbounds nuw i8, ptr %0, i64 928
  %3 = load ptr, ptr %2, align 8, !tbaa !3
  %4 = icmp eq ptr %3, null
  %5 = select i1 %4, ptr %0, ptr %3
  %6 = tail call noundef i32 @_ZN9format_ns20get_format_family_idER11ast_manager(ptr noundef nonnull align 8 dereferenceable(976) %0)
  %7 = tail call noundef ptr @_ZN11ast_manager7mk_sortEiijPK9parameter(ptr noundef nonnull align 8 dereferenceable(976) %5, i32 noundef %6, i32 noundef 0, i32 noundef 0, ptr noundef null)
  ret ptr %7
}